; Function Attrs: nofree norecurse nosync nounwind memory(readwrite, inaccessiblemem: none) uwtable
define dso_local void @manifest_files_delete_item(ptr noundef captures(none) %0, ptr noundef %1) local_unnamed_addr #11 {
  %3 = getelementptr i8, ptr %1, i64 8
  %.val27 = load ptr, ptr %3, align 8
  %4 = tail call fastcc i32 @hash_string(ptr noundef readonly %.val27)
  %5 = getelementptr i8, ptr %0, i64 12
  %6 = getelementptr inbounds nuw i8, ptr %0, i64 24
  %7 = load ptr, ptr %6, align 8
  %8 = ptrtoint ptr %1 to i64
  %9 = ptrtoint ptr %7 to i64
  %10 = sub i64 %8, %9
  %11 = sdiv exact i64 %10, 40
  %12 = trunc i64 %11 to i32
  %13 = getelementptr inbounds nuw i8, ptr %0, i64 8
  %14 = load i32, ptr %13, align 8
  %15 = add i32 %14, -1
  store i32 %15, ptr %13, align 8
  %.val3034 = load i32, ptr %5, align 4
  %16 = add i32 %12, 1
  %17 = and i32 %.val3034, %16
  %18 = zext i32 %17 to i64
  %19 = getelementptr inbounds nuw %struct.manifest_file, ptr %7, i64 %18
  %20 = load i32, ptr %19, align 8
  %.not35 = icmp eq i32 %20, 1
  br i1 %.not35, label %.lr.ph, label %._crit_edge

.lr.ph:                                           ; preds = %2, %27
  %21 = phi ptr [ %32, %27 ], [ %19, %2 ]
  %22 = phi i32 [ %29, %27 ], [ %17, %2 ]
  %.val3037 = phi i32 [ %.val30, %27 ], [ %.val3034, %2 ]
  %.02536 = phi ptr [ %21, %27 ], [ %1, %2 ]
  %23 = getelementptr i8, ptr %21, i64 8
  %.val = load ptr, ptr %23, align 8
  %24 = tail call fastcc i32 @hash_string(ptr noundef readonly %.val)
  %25 = and i32 %24, %.val3037
  %26 = icmp eq i32 %25, %22
  br i1 %26, label %._crit_edge, label %27

27:                                               ; preds = %.lr.ph
  tail call void @llvm.memcpy.p0.p0.i64(ptr noundef nonnull align 8 dereferenceable(40) %.02536, ptr noundef nonnull align 8 dereferenceable(40) %21, i64 40, i1 false)
  %.val30 = load i32, ptr %5, align 4
  %28 = add i32 %22, 1
  %29 = and i32 %.val30, %28
  %30 = load ptr, ptr %6, align 8
  %31 = zext i32 %29 to i64
  %32 = getelementptr inbounds nuw %struct.manifest_file, ptr %30, i64 %31
  %33 = load i32, ptr %32, align 8
  %.not = icmp eq i32 %33, 1
  br i1 %.not, label %.lr.ph, label %._crit_edge

._crit_edge:                                      ; preds = %27, %.lr.ph, %2
  %.025.lcssa = phi ptr [ %1, %2 ], [ %.02536, %.lr.ph ], [ %21, %27 ]
  store i32 0, ptr %.025.lcssa, align 8
  ret void
}